; Function Attrs: nounwind uwtable
define range(i32 -2147483647, -2147483648) i32 @Wlc_NtkCreateLevels(ptr noundef captures(none) %0) local_unnamed_addr #3 {
  %2 = getelementptr inbounds nuw i8, ptr %0, i64 784
  %3 = getelementptr i8, ptr %0, i64 648
  %.val39 = load i32, ptr %3, align 8
  %4 = load i32, ptr %2, align 8
  %.not.i.i = icmp slt i32 %4, %.val39
  br i1 %.not.i.i, label %5, label %Vec_IntGrow.exit.i

5:                                                ; preds = %1
  %6 = getelementptr inbounds nuw i8, ptr %0, i64 792
  %7 = load ptr, ptr %6, align 8
  %.not9.i.i = icmp eq ptr %7, null
  %8 = sext i32 %.val39 to i64
  %9 = shl nsw i64 %8, 2
  br i1 %.not9.i.i, label %12, label %10

10:                                               ; preds = %5
  %11 = tail call ptr @realloc(ptr noundef nonnull %7, i64 noundef %9) #27
  br label %14

12:                                               ; preds = %5
  %13 = tail call noalias ptr @malloc(i64 noundef %9) #26
  br label %14

14:                                               ; preds = %12, %10
  %15 = phi ptr [ %11, %10 ], [ %13, %12 ]
  store ptr %15, ptr %6, align 8
  store i32 %.val39, ptr %2, align 8
  br label %Vec_IntGrow.exit.i

Vec_IntGrow.exit.i:                               ; preds = %14, %1
  %16 = icmp sgt i32 %.val39, 0
  br i1 %16, label %.lr.ph.i, label %Vec_IntFill.exit

.lr.ph.i:                                         ; preds = %Vec_IntGrow.exit.i
  %17 = getelementptr inbounds nuw i8, ptr %0, i64 792
  %wide.trip.count.i = zext nneg i32 %.val39 to i64
  br label %18

18:                                               ; preds = %18, %.lr.ph.i
  %indvars.iv.i = phi i64 [ 0, %.lr.ph.i ], [ %indvars.iv.next.i, %18 ]
  %19 = load ptr, ptr %17, align 8
  %20 = getelementptr inbounds nuw i32, ptr %19, i64 %indvars.iv.i
  store i32 0, ptr %20, align 4
  %indvars.iv.next.i = add nuw nsw i64 %indvars.iv.i, 1
  %exitcond.not.i = icmp eq i64 %indvars.iv.next.i, %wide.trip.count.i
  br i1 %exitcond.not.i, label %Vec_IntFill.exit, label %18, !llvm.loop !7

Vec_IntFill.exit:                                 ; preds = %18, %Vec_IntGrow.exit.i
  %21 = getelementptr inbounds nuw i8, ptr %0, i64 788
  store i32 %.val39, ptr %21, align 4
  %.val3850 = load i32, ptr %3, align 8
  %22 = icmp sgt i32 %.val3850, 1
  br i1 %22, label %.lr.ph, label %.critedge2

.lr.ph:                                           ; preds = %Vec_IntFill.exit
  %23 = getelementptr i8, ptr %0, i64 640
  br label %27

.critedge.preheader:                              ; preds = %27
  %24 = icmp sgt i32 %.val38, 1
  br i1 %24, label %.lr.ph54, label %.critedge2thread-pre-split

.lr.ph54:                                         ; preds = %.critedge.preheader
  %25 = getelementptr i8, ptr %0, i64 640
  %26 = getelementptr i8, ptr %0, i64 792
  br label %31

27:                                               ; preds = %.lr.ph, %27
  %indvars.iv = phi i64 [ 1, %.lr.ph ], [ %indvars.iv.next, %27 ]
  %.val35 = load ptr, ptr %23, align 8
  %28 = getelementptr inbounds nuw %struct.Wlc_Obj_t_, ptr %.val35, i64 %indvars.iv
  tail call void @Wlc_NtkCreateLevels_rec(ptr noundef nonnull %0, ptr noundef nonnull %28)
  %indvars.iv.next = add nuw nsw i64 %indvars.iv, 1
  %.val38 = load i32, ptr %3, align 8
  %29 = sext i32 %.val38 to i64
  %30 = icmp slt i64 %indvars.iv.next, %29
  br i1 %30, label %27, label %.critedge.preheader, !llvm.loop !16

31:                                               ; preds = %.lr.ph54, %.critedge
  %.val3766 = phi i32 [ %.val38, %.lr.ph54 ], [ %.val37, %.critedge ]
  %indvars.iv59 = phi i64 [ 1, %.lr.ph54 ], [ %indvars.iv.next60, %.critedge ]
  %.val34 = load ptr, ptr %25, align 8
  %32 = getelementptr inbounds nuw %struct.Wlc_Obj_t_, ptr %.val34, i64 %indvars.iv59
  %.val36 = load i16, ptr %32, align 8
  %33 = and i16 %.val36, 61
  %narrow.i.not = icmp eq i16 %33, 1
  br i1 %narrow.i.not, label %.critedge, label %34

34:                                               ; preds = %31
  %35 = getelementptr i8, ptr %32, i64 4
  %.val40 = load i32, ptr %35, align 4
  %.not32 = icmp eq i32 %.val40, 0
  br i1 %.not32, label %.critedge, label %36

36:                                               ; preds = %34
  %.val42 = load ptr, ptr %26, align 8
  %37 = getelementptr inbounds nuw i32, ptr %.val42, i64 %indvars.iv59
  %38 = load i32, ptr %37, align 4
  %39 = add nsw i32 %38, 1
  store i32 %39, ptr %37, align 4
  %.val37.pre = load i32, ptr %3, align 8
  br label %.critedge

.critedge:                                        ; preds = %31, %34, %36
  %.val37 = phi i32 [ %.val3766, %31 ], [ %.val3766, %34 ], [ %.val37.pre, %36 ]
  %indvars.iv.next60 = add nuw nsw i64 %indvars.iv59, 1
  %40 = sext i32 %.val37 to i64
  %41 = icmp slt i64 %indvars.iv.next60, %40
  br i1 %41, label %31, label %.critedge2thread-pre-split, !llvm.loop !17

.critedge2thread-pre-split:                       ; preds = %.critedge, %.critedge.preheader
  %.pr = load i32, ptr %21, align 4
  br label %.critedge2

.critedge2:                                       ; preds = %Vec_IntFill.exit, %.critedge2thread-pre-split
  %42 = phi i32 [ %.pr, %.critedge2thread-pre-split ], [ %.val39, %Vec_IntFill.exit ]
  %43 = icmp eq i32 %42, 0
  br i1 %43, label %Vec_IntFindMax.exit, label %44

44:                                               ; preds = %.critedge2
  %45 = getelementptr inbounds nuw i8, ptr %0, i64 792
  %46 = load ptr, ptr %45, align 8
  %47 = load i32, ptr %46, align 4
  %48 = icmp sgt i32 %42, 1
  br i1 %48, label %.lr.ph.preheader.i, label %Vec_IntFindMax.exit

.lr.ph.preheader.i:                               ; preds = %44
  %wide.trip.count.i45 = zext nneg i32 %42 to i64
  br label %.lr.ph.i46

.lr.ph.i46:                                       ; preds = %.lr.ph.i46, %.lr.ph.preheader.i
  %indvars.iv.i47 = phi i64 [ 1, %.lr.ph.preheader.i ], [ %indvars.iv.next.i48, %.lr.ph.i46 ]
  %.015.i = phi i32 [ %47, %.lr.ph.preheader.i ], [ %spec.select.i, %.lr.ph.i46 ]
  %49 = getelementptr inbounds nuw i32, ptr %46, i64 %indvars.iv.i47
  %50 = load i32, ptr %49, align 4
  %spec.select.i = tail call i32 @llvm.smax.i32(i32 %.015.i, i32 %50)
  %indvars.iv.next.i48 = add nuw nsw i64 %indvars.iv.i47, 1
  %exitcond.not.i49 = icmp eq i64 %indvars.iv.next.i48, %wide.trip.count.i45
  br i1 %exitcond.not.i49, label %Vec_IntFindMax.exit, label %.lr.ph.i46, !llvm.loop !18

Vec_IntFindMax.exit:                              ; preds = %.lr.ph.i46, %.critedge2, %44
  %.012.i = phi i32 [ 0, %.critedge2 ], [ %47, %44 ], [ %spec.select.i, %.lr.ph.i46 ]
  %51 = getelementptr i8, ptr %0, i64 100
  %.val55 = load i32, ptr %51, align 4
  %52 = icmp sgt i32 %.val55, 0
  br i1 %52, label %.lr.ph57, label %Vec_IntFindMax.exit..critedge4_crit_edge

Vec_IntFindMax.exit..critedge4_crit_edge:         ; preds = %Vec_IntFindMax.exit
  %.pre = add nsw i32 %.012.i, 1
  br label %.critedge4

.lr.ph57:                                         ; preds = %Vec_IntFindMax.exit
  %53 = getelementptr i8, ptr %0, i64 104
  %54 = add nsw i32 %.012.i, 1
  %55 = getelementptr i8, ptr %0, i64 792
  br label %56

56:                                               ; preds = %.lr.ph57, %56
  %indvars.iv62 = phi i64 [ 0, %.lr.ph57 ], [ %indvars.iv.next63, %56 ]
  %.val43 = load ptr, ptr %53, align 8
  %57 = getelementptr inbounds nuw i32, ptr %.val43, i64 %indvars.iv62
  %58 = load i32, ptr %57, align 4
  %.val41 = load ptr, ptr %55, align 8
  %59 = sext i32 %58 to i64
  %60 = getelementptr inbounds i32, ptr %.val41, i64 %59
  store i32 %54, ptr %60, align 4
  %indvars.iv.next63 = add nuw nsw i64 %indvars.iv62, 1
  %.val = load i32, ptr %51, align 4
  %61 = sext i32 %.val to i64
  %62 = icmp slt i64 %indvars.iv.next63, %61
  br i1 %62, label %56, label %.critedge4, !llvm.loop !19

.critedge4:                                       ; preds = %56, %Vec_IntFindMax.exit..critedge4_crit_edge
  %.pre-phi = phi i32 [ %.pre, %Vec_IntFindMax.exit..critedge4_crit_edge ], [ %54, %56 ]
  ret i32 %.pre-phi
}